target datalayout = "e-m:e-p270:32:32-p271:32:32-p272:64:64-i64:64-i128:128-f80:128-n8:16:32:64-S128"
target triple = "x86_64-pc-linux-gnu"

%struct.ExpireMeta = type { i32, i16, i16, ptr }
%struct.redisObject = type { i32, i32, ptr }
%struct.listpackEx = type { %struct.ExpireMeta, ptr, ptr }
%struct.listpackEntry = type { ptr, i32, i64 }
%struct.sdshdr8 = type { i8, i8, i8, [0 x i8] }
%struct.sdshdr16 = type <{ i16, i16, i8, [0 x i8] }>
%struct.sdshdr32 = type <{ i32, i32, i8, [0 x i8] }>
%struct.sdshdr64 = type <{ i64, i64, i8, [0 x i8] }>

@.str.2 = private unnamed_addr constant [9 x i8] c"t_hash.c\00", align 1
@.str.6 = private unnamed_addr constant [21 x i8] c"Unknown encoding: %d\00", align 1
@.str.11 = private unnamed_addr constant [22 x i8] c"Unknown hash encoding\00", align 1

; Function Attrs: nounwind uwtable
define dso_local ptr @hashTypeListpackGetLp(ptr noundef %0) #1 {
  %2 = alloca ptr, align 8
  %3 = alloca ptr, align 8
  store ptr %0, ptr %3, align 8, !tbaa !15
  %4 = load ptr, ptr %3, align 8, !tbaa !15
  %5 = load i32, ptr %4, align 8
  %6 = lshr i32 %5, 4
  %7 = and i32 %6, 15
  %8 = icmp eq i32 %7, 11
  br i1 %8, label %9, label %13

9:                                                ; preds = %1
  %10 = load ptr, ptr %3, align 8, !tbaa !15
  %11 = getelementptr inbounds nuw %struct.redisObject, ptr %10, i32 0, i32 2
  %12 = load ptr, ptr %11, align 8, !tbaa !17
  store ptr %12, ptr %2, align 8
  br label %31

13:                                               ; preds = %1
  %14 = load ptr, ptr %3, align 8, !tbaa !15
  %15 = load i32, ptr %14, align 8
  %16 = lshr i32 %15, 4
  %17 = and i32 %16, 15
  %18 = icmp eq i32 %17, 12
  br i1 %18, label %19, label %25

19:                                               ; preds = %13
  %20 = load ptr, ptr %3, align 8, !tbaa !15
  %21 = getelementptr inbounds nuw %struct.redisObject, ptr %20, i32 0, i32 2
  %22 = load ptr, ptr %21, align 8, !tbaa !17
  %23 = getelementptr inbounds nuw %struct.listpackEx, ptr %22, i32 0, i32 2
  %24 = load ptr, ptr %23, align 8, !tbaa !21
  store ptr %24, ptr %2, align 8
  br label %31

25:                                               ; preds = %13
  br label %26

26:                                               ; preds = %25
  %27 = load ptr, ptr %3, align 8, !tbaa !15
  %28 = load i32, ptr %27, align 8
  %29 = lshr i32 %28, 4
  %30 = and i32 %29, 15
  call void (ptr, i32, ptr, ...) @_serverPanic(ptr noundef @.str.2, i32 noundef 594, ptr noundef @.str.6, i32 noundef %30)
  call void @abort() #14
  unreachable

31:                                               ; preds = %19, %9
  %32 = load ptr, ptr %2, align 8
  ret ptr %32
}

; Function Attrs: inlinehint nounwind uwtable
define internal i64 @sdslen(ptr noundef %0) #7 {
  %2 = alloca i64, align 8
  %3 = alloca ptr, align 8
  %4 = alloca i8, align 1
  %5 = alloca i32, align 4
  store ptr %0, ptr %3, align 8, !tbaa !33
  call void @llvm.lifetime.start.p0(i64 1, ptr %4) #12
  %6 = load ptr, ptr %3, align 8, !tbaa !33
  %7 = getelementptr inbounds i8, ptr %6, i64 -1
  %8 = load i8, ptr %7, align 1, !tbaa !95
  store i8 %8, ptr %4, align 1, !tbaa !95
  %9 = load i8, ptr %4, align 1, !tbaa !95
  %10 = zext i8 %9 to i32
  %11 = and i32 %10, 7
  switch i32 %11, label %40 [
    i32 0, label %12
    i32 1, label %17
    i32 2, label %23
    i32 3, label %29
    i32 4, label %35
  ]

12:                                               ; preds = %1
  %13 = load i8, ptr %4, align 1, !tbaa !95
  %14 = zext i8 %13 to i32
  %15 = ashr i32 %14, 3
  %16 = sext i32 %15 to i64
  store i64 %16, ptr %2, align 8
  store i32 1, ptr %5, align 4
  br label %41

17:                                               ; preds = %1
  %18 = load ptr, ptr %3, align 8, !tbaa !33
  %19 = getelementptr inbounds i8, ptr %18, i64 -3
  %20 = getelementptr inbounds nuw %struct.sdshdr8, ptr %19, i32 0, i32 0
  %21 = load i8, ptr %20, align 1, !tbaa !95
  %22 = zext i8 %21 to i64
  store i64 %22, ptr %2, align 8
  store i32 1, ptr %5, align 4
  br label %41

23:                                               ; preds = %1
  %24 = load ptr, ptr %3, align 8, !tbaa !33
  %25 = getelementptr inbounds i8, ptr %24, i64 -5
  %26 = getelementptr inbounds nuw %struct.sdshdr16, ptr %25, i32 0, i32 0
  %27 = load i16, ptr %26, align 1, !tbaa !96
  %28 = zext i16 %27 to i64
  store i64 %28, ptr %2, align 8
  store i32 1, ptr %5, align 4
  br label %41

29:                                               ; preds = %1
  %30 = load ptr, ptr %3, align 8, !tbaa !33
  %31 = getelementptr inbounds i8, ptr %30, i64 -9
  %32 = getelementptr inbounds nuw %struct.sdshdr32, ptr %31, i32 0, i32 0
  %33 = load i32, ptr %32, align 1, !tbaa !13
  %34 = zext i32 %33 to i64
  store i64 %34, ptr %2, align 8
  store i32 1, ptr %5, align 4
  br label %41

35:                                               ; preds = %1
  %36 = load ptr, ptr %3, align 8, !tbaa !33
  %37 = getelementptr inbounds i8, ptr %36, i64 -17
  %38 = getelementptr inbounds nuw %struct.sdshdr64, ptr %37, i32 0, i32 0
  %39 = load i64, ptr %38, align 1, !tbaa !31
  store i64 %39, ptr %2, align 8
  store i32 1, ptr %5, align 4
  br label %41

40:                                               ; preds = %1
  store i64 0, ptr %2, align 8
  store i32 1, ptr %5, align 4
  br label %41

41:                                               ; preds = %40, %35, %29, %23, %17, %12
  call void @llvm.lifetime.end.p0(i64 1, ptr %4) #12
  %42 = load i64, ptr %2, align 8
  ret i64 %42
}

; Function Attrs: inlinehint nounwind uwtable
define internal i64 @hfieldlen(ptr noundef %0) #7 {
  %2 = alloca ptr, align 8
  store ptr %0, ptr %2, align 8, !tbaa !33
  %3 = load ptr, ptr %2, align 8, !tbaa !33
  %4 = call i64 @mstrlen(ptr noundef %3)
  ret i64 %4
}

; Function Attrs: nounwind uwtable
define dso_local void @hashTypeRandomElement(ptr noundef %0, i64 noundef %1, ptr noundef %2, ptr noundef %3) #1 {
  %5 = alloca ptr, align 8
  %6 = alloca i64, align 8
  %7 = alloca ptr, align 8
  %8 = alloca ptr, align 8
  %9 = alloca ptr, align 8
  %10 = alloca ptr, align 8
  %11 = alloca ptr, align 8
  store ptr %0, ptr %5, align 8, !tbaa !15
  store i64 %1, ptr %6, align 8, !tbaa !31
  store ptr %2, ptr %7, align 8, !tbaa !10
  store ptr %3, ptr %8, align 8, !tbaa !10
  %12 = load ptr, ptr %5, align 8, !tbaa !15
  %13 = load i32, ptr %12, align 8
  %14 = lshr i32 %13, 4
  %15 = and i32 %14, 15
  %16 = icmp eq i32 %15, 2
  br i1 %16, label %17, label %46

17:                                               ; preds = %4
  call void @llvm.lifetime.start.p0(i64 8, ptr %9) #12
  %18 = load ptr, ptr %5, align 8, !tbaa !15
  %19 = getelementptr inbounds nuw %struct.redisObject, ptr %18, i32 0, i32 2
  %20 = load ptr, ptr %19, align 8, !tbaa !17
  %21 = call ptr @dictGetFairRandomKey(ptr noundef %20)
  store ptr %21, ptr %9, align 8, !tbaa !109
  call void @llvm.lifetime.start.p0(i64 8, ptr %10) #12
  %22 = load ptr, ptr %9, align 8, !tbaa !109
  %23 = call ptr @dictGetKey(ptr noundef %22)
  store ptr %23, ptr %10, align 8, !tbaa !33
  %24 = load ptr, ptr %10, align 8, !tbaa !33
  %25 = load ptr, ptr %7, align 8, !tbaa !10
  %26 = getelementptr inbounds nuw %struct.listpackEntry, ptr %25, i32 0, i32 0
  store ptr %24, ptr %26, align 8, !tbaa !76
  %27 = load ptr, ptr %10, align 8, !tbaa !33
  %28 = call i64 @hfieldlen(ptr noundef %27)
  %29 = trunc i64 %28 to i32
  %30 = load ptr, ptr %7, align 8, !tbaa !10
  %31 = getelementptr inbounds nuw %struct.listpackEntry, ptr %30, i32 0, i32 1
  store i32 %29, ptr %31, align 8, !tbaa !78
  %32 = load ptr, ptr %8, align 8, !tbaa !10
  %33 = icmp ne ptr %32, null
  br i1 %33, label %34, label %45

34:                                               ; preds = %17
  call void @llvm.lifetime.start.p0(i64 8, ptr %11) #12
  %35 = load ptr, ptr %9, align 8, !tbaa !109
  %36 = call ptr @dictGetVal(ptr noundef %35)
  store ptr %36, ptr %11, align 8, !tbaa !33
  %37 = load ptr, ptr %11, align 8, !tbaa !33
  %38 = load ptr, ptr %8, align 8, !tbaa !10
  %39 = getelementptr inbounds nuw %struct.listpackEntry, ptr %38, i32 0, i32 0
  store ptr %37, ptr %39, align 8, !tbaa !76
  %40 = load ptr, ptr %11, align 8, !tbaa !33
  %41 = call i64 @sdslen(ptr noundef %40)
  %42 = trunc i64 %41 to i32
  %43 = load ptr, ptr %8, align 8, !tbaa !10
  %44 = getelementptr inbounds nuw %struct.listpackEntry, ptr %43, i32 0, i32 1
  store i32 %42, ptr %44, align 8, !tbaa !78
  call void @llvm.lifetime.end.p0(i64 8, ptr %11) #12
  br label %45

45:                                               ; preds = %34, %17
  call void @llvm.lifetime.end.p0(i64 8, ptr %10) #12
  call void @llvm.lifetime.end.p0(i64 8, ptr %9) #12
  br label %74

46:                                               ; preds = %4
  %47 = load ptr, ptr %5, align 8, !tbaa !15
  %48 = load i32, ptr %47, align 8
  %49 = lshr i32 %48, 4
  %50 = and i32 %49, 15
  %51 = icmp eq i32 %50, 11
  br i1 %51, label %52, label %59

52:                                               ; preds = %46
  %53 = load ptr, ptr %5, align 8, !tbaa !15
  %54 = getelementptr inbounds nuw %struct.redisObject, ptr %53, i32 0, i32 2
  %55 = load ptr, ptr %54, align 8, !tbaa !17
  %56 = load i64, ptr %6, align 8, !tbaa !31
  %57 = load ptr, ptr %7, align 8, !tbaa !10
  %58 = load ptr, ptr %8, align 8, !tbaa !10
  call void @lpRandomPair(ptr noundef %55, i64 noundef %56, ptr noundef %57, ptr noundef %58, i32 noundef 2)
  br label %73

59:                                               ; preds = %46
  %60 = load ptr, ptr %5, align 8, !tbaa !15
  %61 = load i32, ptr %60, align 8
  %62 = lshr i32 %61, 4
  %63 = and i32 %62, 15
  %64 = icmp eq i32 %63, 12
  br i1 %64, label %65, label %71

65:                                               ; preds = %59
  %66 = load ptr, ptr %5, align 8, !tbaa !15
  %67 = call ptr @hashTypeListpackGetLp(ptr noundef %66)
  %68 = load i64, ptr %6, align 8, !tbaa !31
  %69 = load ptr, ptr %7, align 8, !tbaa !10
  %70 = load ptr, ptr %8, align 8, !tbaa !10
  call void @lpRandomPair(ptr noundef %67, i64 noundef %68, ptr noundef %69, ptr noundef %70, i32 noundef 3)
  br label %72

71:                                               ; preds = %59
  call void (ptr, i32, ptr, ...) @_serverPanic(ptr noundef @.str.2, i32 noundef 1816, ptr noundef @.str.11)
  call void @abort() #14
  unreachable

72:                                               ; preds = %65
  br label %73

73:                                               ; preds = %72, %52
  br label %74

74:                                               ; preds = %73, %45
  ret void
}