; Function Attrs: nounwind uwtable
define dso_local void @hashTypeRandomElement(ptr noundef readonly captures(none) %0, i64 noundef %1, ptr noundef %2, ptr noundef %3) local_unnamed_addr #1 {
  %5 = load i32, ptr %0, align 8
  %6 = lshr i32 %5, 4
  %7 = and i32 %6, 15
  switch i32 %7, label %48 [
    i32 2, label %8
    i32 11, label %42
    i32 12, label %hashTypeListpackGetLp.exit
  ]

8:                                                ; preds = %4
  %9 = getelementptr inbounds nuw i8, ptr %0, i64 8
  %10 = load ptr, ptr %9, align 8, !tbaa !10
  %11 = tail call ptr @dictGetFairRandomKey(ptr noundef %10) #16
  %12 = tail call ptr @dictGetKey(ptr noundef %11) #16
  store ptr %12, ptr %2, align 8, !tbaa !71
  %13 = tail call i64 @mstrlen(ptr noundef %12) #16
  %14 = trunc i64 %13 to i32
  %15 = getelementptr inbounds nuw i8, ptr %2, i64 8
  store i32 %14, ptr %15, align 8, !tbaa !73
  %.not = icmp eq ptr %3, null
  br i1 %.not, label %49, label %16

16:                                               ; preds = %8
  %17 = tail call ptr @dictGetVal(ptr noundef %11) #16
  store ptr %17, ptr %3, align 8, !tbaa !71
  %18 = getelementptr inbounds i8, ptr %17, i64 -1
  %19 = load i8, ptr %18, align 1, !tbaa !5
  %20 = zext i8 %19 to i32
  %21 = and i32 %20, 7
  switch i32 %21, label %sdslen.exit [
    i32 0, label %22
    i32 1, label %25
    i32 2, label %29
    i32 3, label %33
    i32 4, label %37
  ]

22:                                               ; preds = %16
  %23 = lshr i32 %20, 3
  %24 = zext nneg i32 %23 to i64
  br label %sdslen.exit

25:                                               ; preds = %16
  %26 = getelementptr inbounds i8, ptr %17, i64 -3
  %27 = load i8, ptr %26, align 1, !tbaa !5
  %28 = zext i8 %27 to i64
  br label %sdslen.exit

29:                                               ; preds = %16
  %30 = getelementptr inbounds i8, ptr %17, i64 -5
  %31 = load i16, ptr %30, align 1, !tbaa !8
  %32 = zext i16 %31 to i64
  br label %sdslen.exit

33:                                               ; preds = %16
  %34 = getelementptr inbounds i8, ptr %17, i64 -9
  %35 = load i32, ptr %34, align 1, !tbaa !65
  %36 = zext i32 %35 to i64
  br label %sdslen.exit

37:                                               ; preds = %16
  %38 = getelementptr inbounds i8, ptr %17, i64 -17
  %39 = load i64, ptr %38, align 1, !tbaa !28
  br label %sdslen.exit

sdslen.exit:                                      ; preds = %16, %22, %25, %29, %33, %37
  %.0.i = phi i64 [ %39, %37 ], [ %36, %33 ], [ %32, %29 ], [ %28, %25 ], [ %24, %22 ], [ 0, %16 ]
  %40 = trunc i64 %.0.i to i32
  %41 = getelementptr inbounds nuw i8, ptr %3, i64 8
  store i32 %40, ptr %41, align 8, !tbaa !73
  br label %49

42:                                               ; preds = %4
  %43 = getelementptr inbounds nuw i8, ptr %0, i64 8
  %44 = load ptr, ptr %43, align 8, !tbaa !10
  tail call void @lpRandomPair(ptr noundef %44, i64 noundef %1, ptr noundef %2, ptr noundef %3, i32 noundef 2) #16
  br label %49

hashTypeListpackGetLp.exit:                       ; preds = %4
  %45 = getelementptr inbounds nuw i8, ptr %0, i64 8
  %46 = load ptr, ptr %45, align 8, !tbaa !10
  %47 = getelementptr inbounds nuw i8, ptr %46, i64 24
  %.0.i23 = load ptr, ptr %47, align 8, !tbaa !86
  tail call void @lpRandomPair(ptr noundef %.0.i23, i64 noundef %1, ptr noundef %2, ptr noundef %3, i32 noundef 3) #16
  br label %49

48:                                               ; preds = %4
  tail call void (ptr, i32, ptr, ...) @_serverPanic(ptr noundef nonnull @.str.2, i32 noundef 1816, ptr noundef nonnull @.str.11) #16
  tail call void @abort() #17
  unreachable

49:                                               ; preds = %8, %sdslen.exit, %42, %hashTypeListpackGetLp.exit
  ret void
}